target datalayout = "e-m:e-p270:32:32-p271:32:32-p272:64:64-i64:64-i128:128-f80:128-n8:16:32:64-S128"
target triple = "x86_64-pc-linux-gnu"

%struct.H5O_token_t = type { [16 x i8] }
%struct.ref_path_node_t = type { %struct.H5O_token_t, ptr }

@ref_path_table = internal global ptr null, align 8
@.str = private unnamed_addr constant [2 x i8] c"/\00", align 1
@thefile = internal global i64 -1, align 8
@fake_xid = internal global i64 -2, align 8
@H5O_TOKEN_UNDEF_g = external constant %struct.H5O_token_t, align 1
@.str.1 = private unnamed_addr constant [42 x i8] c"unable to construct reference path table\0A\00", align 1

; Function Attrs: nounwind uwtable
define internal i32 @ref_path_table_put(ptr noundef %0, ptr noundef %1) #0 {
  %3 = alloca i32, align 4
  %4 = alloca ptr, align 8
  %5 = alloca ptr, align 8
  %6 = alloca ptr, align 8
  store ptr %0, ptr %4, align 8
  store ptr %1, ptr %5, align 8
  %7 = load ptr, ptr @ref_path_table, align 8
  %8 = icmp ne ptr %7, null
  br i1 %8, label %9, label %29

9:                                                ; preds = %2
  %10 = load ptr, ptr %4, align 8
  %11 = icmp ne ptr %10, null
  br i1 %11, label %12, label %29

12:                                               ; preds = %9
  %13 = call noalias ptr @malloc(i64 noundef 24) #8
  store ptr %13, ptr %6, align 8
  %14 = icmp eq ptr %13, null
  br i1 %14, label %15, label %16

15:                                               ; preds = %12
  store i32 -1, ptr %3, align 4
  br label %30

16:                                               ; preds = %12
  %17 = load ptr, ptr %6, align 8
  %18 = getelementptr inbounds %struct.ref_path_node_t, ptr %17, i32 0, i32 0
  %19 = load ptr, ptr %5, align 8
  call void @llvm.memcpy.p0.p0.i64(ptr align 8 %18, ptr align 1 %19, i64 16, i1 false)
  %20 = load ptr, ptr %4, align 8
  %21 = call noalias ptr @strdup(ptr noundef %20) #6
  %22 = load ptr, ptr %6, align 8
  %23 = getelementptr inbounds %struct.ref_path_node_t, ptr %22, i32 0, i32 1
  store ptr %21, ptr %23, align 8
  %24 = load ptr, ptr @ref_path_table, align 8
  %25 = load ptr, ptr %6, align 8
  %26 = load ptr, ptr %6, align 8
  %27 = getelementptr inbounds %struct.ref_path_node_t, ptr %26, i32 0, i32 0
  %28 = call i32 @H5SL_insert(ptr noundef %24, ptr noundef %25, ptr noundef %27)
  store i32 %28, ptr %3, align 4
  br label %30

29:                                               ; preds = %9, %2
  store i32 -1, ptr %3, align 4
  br label %30

30:                                               ; preds = %29, %16, %15
  %31 = load i32, ptr %3, align 4
  ret i32 %31
}

; Function Attrs: nounwind uwtable
define internal i32 @init_ref_path_table() #0 {
  %1 = alloca i32, align 4
  %2 = load i64, ptr @thefile, align 8
  %3 = icmp sgt i64 %2, 0
  br i1 %3, label %4, label %14

4:                                                ; preds = %0
  %5 = call ptr @H5SL_create(i32 noundef 8, ptr noundef @ref_path_table_cmp)
  store ptr %5, ptr @ref_path_table, align 8
  %6 = icmp eq ptr %5, null
  br i1 %6, label %7, label %8

7:                                                ; preds = %4
  store i32 -1, ptr %1, align 4
  br label %15

8:                                                ; preds = %4
  %9 = load i64, ptr @thefile, align 8
  %10 = call i32 @h5trav_visit(i64 noundef %9, ptr noundef @.str, i1 noundef zeroext true, i1 noundef zeroext true, ptr noundef @init_ref_path_cb, ptr noundef null, ptr noundef null, i32 noundef 1)
  %11 = icmp slt i32 %10, 0
  br i1 %11, label %12, label %13

12:                                               ; preds = %8
  call void (ptr, ...) @error_msg(ptr noundef @.str.1)
  call void @h5tools_setstatus(i32 noundef 1)
  br label %13

13:                                               ; preds = %12, %8
  store i32 0, ptr %1, align 4
  br label %15

14:                                               ; preds = %0
  store i32 -1, ptr %1, align 4
  br label %15

15:                                               ; preds = %14, %13, %7
  %16 = load i32, ptr %1, align 4
  ret i32 %16
}

; Function Attrs: nounwind uwtable
define void @get_fake_token(ptr noundef %0) #0 {
  %2 = alloca ptr, align 8
  store ptr %0, ptr %2, align 8
  %3 = load i64, ptr @thefile, align 8
  %4 = icmp sgt i64 %3, 0
  br i1 %4, label %5, label %17

5:                                                ; preds = %1
  %6 = load i64, ptr @thefile, align 8
  %7 = load i64, ptr @fake_xid, align 8
  %8 = load ptr, ptr %2, align 8
  %9 = call i32 @H5VLnative_addr_to_token(i64 noundef %6, i64 noundef %7, ptr noundef %8)
  %10 = icmp slt i32 %9, 0
  br i1 %10, label %11, label %14

11:                                               ; preds = %5
  %12 = load ptr, ptr %2, align 8
  %13 = call i32 @H5open()
  call void @llvm.memcpy.p0.p0.i64(ptr align 1 %12, ptr align 1 @H5O_TOKEN_UNDEF_g, i64 16, i1 false)
  br label %14

14:                                               ; preds = %11, %5
  %15 = load i64, ptr @fake_xid, align 8
  %16 = add i64 %15, -1
  store i64 %16, ptr @fake_xid, align 8
  br label %20

17:                                               ; preds = %1
  %18 = load ptr, ptr %2, align 8
  %19 = call i32 @H5open()
  call void @llvm.memcpy.p0.p0.i64(ptr align 1 %18, ptr align 1 @H5O_TOKEN_UNDEF_g, i64 16, i1 false)
  br label %20

20:                                               ; preds = %17, %14
  ret void
}

; Function Attrs: nounwind uwtable
define void @ref_path_table_gen_fake(ptr noundef %0, ptr noundef %1) #0 {
  %3 = alloca ptr, align 8
  %4 = alloca ptr, align 8
  store ptr %0, ptr %3, align 8
  store ptr %1, ptr %4, align 8
  %5 = load ptr, ptr %4, align 8
  call void @get_fake_token(ptr noundef %5)
  %6 = load ptr, ptr @ref_path_table, align 8
  %7 = icmp eq ptr %6, null
  br i1 %7, label %8, label %10

8:                                                ; preds = %2
  %9 = call i32 @init_ref_path_table()
  br label %10

10:                                               ; preds = %8, %2
  %11 = load ptr, ptr %3, align 8
  %12 = load ptr, ptr %4, align 8
  %13 = call i32 @ref_path_table_put(ptr noundef %11, ptr noundef %12)
  ret void
}