; Function Attrs: nounwind uwtable
define void @ref_path_table_gen_fake(ptr noundef readonly %0, ptr noundef %1) local_unnamed_addr #0 {
  %3 = load i64, ptr @thefile, align 8
  %4 = icmp sgt i64 %3, 0
  br i1 %4, label %5, label %14

5:                                                ; preds = %2
  %6 = load i64, ptr @fake_xid, align 8
  %7 = tail call i32 @H5VLnative_addr_to_token(i64 noundef %3, i64 noundef %6, ptr noundef %1) #10
  %8 = icmp slt i32 %7, 0
  br i1 %8, label %9, label %11

9:                                                ; preds = %5
  %10 = tail call i32 @H5open() #10
  tail call void @llvm.memcpy.p0.p0.i64(ptr noundef nonnull align 1 dereferenceable(16) %1, ptr noundef nonnull align 1 dereferenceable(16) @H5O_TOKEN_UNDEF_g, i64 16, i1 false)
  br label %11

11:                                               ; preds = %9, %5
  %12 = load i64, ptr @fake_xid, align 8
  %13 = add i64 %12, -1
  store i64 %13, ptr @fake_xid, align 8
  br label %get_fake_token.exit

14:                                               ; preds = %2
  %15 = tail call i32 @H5open() #10
  tail call void @llvm.memcpy.p0.p0.i64(ptr noundef nonnull align 1 dereferenceable(16) %1, ptr noundef nonnull align 1 dereferenceable(16) @H5O_TOKEN_UNDEF_g, i64 16, i1 false)
  br label %get_fake_token.exit

get_fake_token.exit:                              ; preds = %11, %14
  %16 = load ptr, ptr @ref_path_table, align 8
  %17 = icmp eq ptr %16, null
  %18 = load i64, ptr @thefile, align 8
  %19 = icmp sgt i64 %18, 0
  %or.cond = select i1 %17, i1 %19, i1 false
  br i1 %or.cond, label %20, label %init_ref_path_table.exit

20:                                               ; preds = %get_fake_token.exit
  %21 = tail call ptr @H5SL_create(i32 noundef 8, ptr noundef nonnull @ref_path_table_cmp) #10
  store ptr %21, ptr @ref_path_table, align 8
  %22 = icmp eq ptr %21, null
  br i1 %22, label %init_ref_path_table.exit, label %23

23:                                               ; preds = %20
  %24 = load i64, ptr @thefile, align 8
  %25 = tail call i32 @h5trav_visit(i64 noundef %24, ptr noundef nonnull @.str, i1 noundef zeroext true, i1 noundef zeroext true, ptr noundef nonnull @init_ref_path_cb, ptr noundef null, ptr noundef null, i32 noundef 1) #10
  %26 = icmp slt i32 %25, 0
  br i1 %26, label %27, label %init_ref_path_table.exit

27:                                               ; preds = %23
  tail call void (ptr, ...) @error_msg(ptr noundef nonnull @.str.1) #10
  tail call void @h5tools_setstatus(i32 noundef 1) #10
  br label %init_ref_path_table.exit

init_ref_path_table.exit:                         ; preds = %27, %23, %20, %get_fake_token.exit
  %28 = load ptr, ptr @ref_path_table, align 8
  %29 = icmp ne ptr %28, null
  %30 = icmp ne ptr %0, null
  %or.cond.i = and i1 %30, %29
  br i1 %or.cond.i, label %31, label %ref_path_table_put.exit

31:                                               ; preds = %init_ref_path_table.exit
  %32 = tail call noalias dereferenceable_or_null(24) ptr @malloc(i64 noundef 24) #11
  %33 = icmp eq ptr %32, null
  br i1 %33, label %ref_path_table_put.exit, label %34

34:                                               ; preds = %31
  tail call void @llvm.memcpy.p0.p0.i64(ptr noundef nonnull align 8 dereferenceable(16) %32, ptr noundef nonnull readonly align 1 dereferenceable(16) %1, i64 16, i1 false)
  %35 = tail call noalias ptr @strdup(ptr noundef nonnull readonly %0) #10
  %36 = getelementptr inbounds nuw i8, ptr %32, i64 16
  store ptr %35, ptr %36, align 8
  %37 = tail call i32 @H5SL_insert(ptr noundef nonnull %28, ptr noundef nonnull %32, ptr noundef nonnull %32) #10
  br label %ref_path_table_put.exit

ref_path_table_put.exit:                          ; preds = %init_ref_path_table.exit, %31, %34
  ret void
}